target datalayout = "e-m:e-p270:32:32-p271:32:32-p272:64:64-i64:64-i128:128-f80:128-n8:16:32:64-S128"
target triple = "x86_64-pc-linux-gnu"

%struct.DhKey = type { %struct.sp_int, %struct.sp_int, %struct.sp_int, ptr, i32 }
%struct.sp_int = type { i16, i16, [129 x i64] }

; Function Attrs: nounwind uwtable
define internal i32 @_ffc_pairwise_consistency_test(ptr noundef %0, ptr noundef %1, i32 noundef %2, ptr noundef %3, i32 noundef %4) #0 {
  %6 = alloca i32, align 4
  %7 = alloca ptr, align 8
  %8 = alloca ptr, align 8
  %9 = alloca i32, align 4
  %10 = alloca ptr, align 8
  %11 = alloca i32, align 4
  %12 = alloca [1 x %struct.sp_int], align 16
  %13 = alloca [1 x %struct.sp_int], align 16
  %14 = alloca [1 x %struct.sp_int], align 16
  %15 = alloca i32, align 4
  %16 = alloca i32, align 4
  store ptr %0, ptr %7, align 8, !tbaa !3
  store ptr %1, ptr %8, align 8, !tbaa !16
  store i32 %2, ptr %9, align 4, !tbaa !9
  store ptr %3, ptr %10, align 8, !tbaa !16
  store i32 %4, ptr %11, align 4, !tbaa !9
  call void @llvm.lifetime.start.p0(i64 1040, ptr %12) #9
  call void @llvm.lifetime.start.p0(i64 1040, ptr %13) #9
  call void @llvm.lifetime.start.p0(i64 1040, ptr %14) #9
  call void @llvm.lifetime.start.p0(i64 4, ptr %15) #9
  store i32 0, ptr %15, align 4, !tbaa !9
  %17 = load ptr, ptr %7, align 8, !tbaa !3
  %18 = icmp eq ptr %17, null
  br i1 %18, label %25, label %19

19:                                               ; preds = %5
  %20 = load ptr, ptr %8, align 8, !tbaa !16
  %21 = icmp eq ptr %20, null
  br i1 %21, label %25, label %22

22:                                               ; preds = %19
  %23 = load ptr, ptr %10, align 8, !tbaa !16
  %24 = icmp eq ptr %23, null
  br i1 %24, label %25, label %26

25:                                               ; preds = %22, %19, %5
  store i32 -173, ptr %6, align 4
  store i32 1, ptr %16, align 4
  br label %101

26:                                               ; preds = %22
  %27 = load ptr, ptr %7, align 8, !tbaa !3
  %28 = getelementptr inbounds nuw %struct.DhKey, ptr %27, i32 0, i32 0
  %29 = getelementptr inbounds nuw %struct.sp_int, ptr %28, i32 0, i32 0
  %30 = load i16, ptr %29, align 8, !tbaa !24
  %31 = zext i16 %30 to i32
  %32 = icmp ne i32 %31, 0
  br i1 %32, label %33, label %41

33:                                               ; preds = %26
  %34 = load ptr, ptr %7, align 8, !tbaa !3
  %35 = getelementptr inbounds nuw %struct.DhKey, ptr %34, i32 0, i32 0
  %36 = getelementptr inbounds nuw %struct.sp_int, ptr %35, i32 0, i32 2
  %37 = getelementptr inbounds [129 x i64], ptr %36, i64 0, i64 0
  %38 = load i64, ptr %37, align 8, !tbaa !25
  %39 = and i64 %38, 1
  %40 = icmp eq i64 %39, 0
  br label %41

41:                                               ; preds = %33, %26
  %42 = phi i1 [ false, %26 ], [ %40, %33 ]
  %43 = zext i1 %42 to i32
  %44 = icmp eq i32 %43, 1
  br i1 %44, label %45, label %46

45:                                               ; preds = %41
  store i32 -98, ptr %6, align 4
  store i32 1, ptr %16, align 4
  br label %101

46:                                               ; preds = %41
  %47 = getelementptr inbounds [1 x %struct.sp_int], ptr %12, i64 0, i64 0
  %48 = getelementptr inbounds [1 x %struct.sp_int], ptr %13, i64 0, i64 0
  %49 = getelementptr inbounds [1 x %struct.sp_int], ptr %14, i64 0, i64 0
  %50 = call i32 @sp_init_multi(ptr noundef %47, ptr noundef %48, ptr noundef %49, ptr noundef null, ptr noundef null, ptr noundef null)
  %51 = icmp ne i32 %50, 0
  br i1 %51, label %52, label %53

52:                                               ; preds = %46
  store i32 -110, ptr %6, align 4
  store i32 1, ptr %16, align 4
  br label %101

53:                                               ; preds = %46
  br label %54

54:                                               ; preds = %53
  br label %55

55:                                               ; preds = %54
  br label %56

56:                                               ; preds = %55
  %57 = getelementptr inbounds [1 x %struct.sp_int], ptr %12, i64 0, i64 0
  %58 = load ptr, ptr %8, align 8, !tbaa !16
  %59 = load i32, ptr %9, align 4, !tbaa !9
  %60 = call i32 @sp_read_unsigned_bin(ptr noundef %57, ptr noundef %58, i32 noundef %59)
  %61 = icmp ne i32 %60, 0
  br i1 %61, label %68, label %62

62:                                               ; preds = %56
  %63 = getelementptr inbounds [1 x %struct.sp_int], ptr %13, i64 0, i64 0
  %64 = load ptr, ptr %10, align 8, !tbaa !16
  %65 = load i32, ptr %11, align 4, !tbaa !9
  %66 = call i32 @sp_read_unsigned_bin(ptr noundef %63, ptr noundef %64, i32 noundef %65)
  %67 = icmp ne i32 %66, 0
  br i1 %67, label %68, label %69

68:                                               ; preds = %62, %56
  store i32 -111, ptr %15, align 4, !tbaa !9
  br label %69

69:                                               ; preds = %68, %62
  %70 = load i32, ptr %15, align 4, !tbaa !9
  %71 = icmp eq i32 %70, 0
  br i1 %71, label %72, label %83

72:                                               ; preds = %69
  %73 = load ptr, ptr %7, align 8, !tbaa !3
  %74 = getelementptr inbounds nuw %struct.DhKey, ptr %73, i32 0, i32 1
  %75 = getelementptr inbounds [1 x %struct.sp_int], ptr %13, i64 0, i64 0
  %76 = load ptr, ptr %7, align 8, !tbaa !3
  %77 = getelementptr inbounds nuw %struct.DhKey, ptr %76, i32 0, i32 0
  %78 = getelementptr inbounds [1 x %struct.sp_int], ptr %14, i64 0, i64 0
  %79 = call i32 @sp_exptmod(ptr noundef %74, ptr noundef %75, ptr noundef %77, ptr noundef %78)
  %80 = icmp ne i32 %79, 0
  br i1 %80, label %81, label %82

81:                                               ; preds = %72
  store i32 -112, ptr %15, align 4, !tbaa !9
  br label %82

82:                                               ; preds = %81, %72
  br label %83

83:                                               ; preds = %82, %69
  %84 = load i32, ptr %15, align 4, !tbaa !9
  %85 = icmp eq i32 %84, 0
  br i1 %85, label %86, label %93

86:                                               ; preds = %83
  %87 = getelementptr inbounds [1 x %struct.sp_int], ptr %14, i64 0, i64 0
  %88 = getelementptr inbounds [1 x %struct.sp_int], ptr %12, i64 0, i64 0
  %89 = call i32 @sp_cmp(ptr noundef %87, ptr noundef %88)
  %90 = icmp ne i32 %89, 0
  br i1 %90, label %91, label %92

91:                                               ; preds = %86
  store i32 -120, ptr %15, align 4, !tbaa !9
  br label %92

92:                                               ; preds = %91, %86
  br label %93

93:                                               ; preds = %92, %83
  %94 = getelementptr inbounds [1 x %struct.sp_int], ptr %13, i64 0, i64 0
  call void @sp_forcezero(ptr noundef %94)
  %95 = getelementptr inbounds [1 x %struct.sp_int], ptr %12, i64 0, i64 0
  call void @sp_clear(ptr noundef %95)
  %96 = getelementptr inbounds [1 x %struct.sp_int], ptr %14, i64 0, i64 0
  call void @sp_clear(ptr noundef %96)
  br label %97

97:                                               ; preds = %93
  br label %98

98:                                               ; preds = %97
  br label %99

99:                                               ; preds = %98
  %100 = load i32, ptr %15, align 4, !tbaa !9
  store i32 %100, ptr %6, align 4
  store i32 1, ptr %16, align 4
  br label %101

101:                                              ; preds = %99, %52, %45, %25
  call void @llvm.lifetime.end.p0(i64 4, ptr %15) #9
  call void @llvm.lifetime.end.p0(i64 1040, ptr %14) #9
  call void @llvm.lifetime.end.p0(i64 1040, ptr %13) #9
  call void @llvm.lifetime.end.p0(i64 1040, ptr %12) #9
  %102 = load i32, ptr %6, align 4
  ret i32 %102
}

; Function Attrs: nounwind uwtable
define i32 @wc_DhCheckKeyPair(ptr noundef %0, ptr noundef %1, i32 noundef %2, ptr noundef %3, i32 noundef %4) #0 {
  %6 = alloca ptr, align 8
  %7 = alloca ptr, align 8
  %8 = alloca i32, align 4
  %9 = alloca ptr, align 8
  %10 = alloca i32, align 4
  store ptr %0, ptr %6, align 8, !tbaa !3
  store ptr %1, ptr %7, align 8, !tbaa !16
  store i32 %2, ptr %8, align 4, !tbaa !9
  store ptr %3, ptr %9, align 8, !tbaa !16
  store i32 %4, ptr %10, align 4, !tbaa !9
  %11 = load ptr, ptr %6, align 8, !tbaa !3
  %12 = load ptr, ptr %7, align 8, !tbaa !16
  %13 = load i32, ptr %8, align 4, !tbaa !9
  %14 = load ptr, ptr %9, align 8, !tbaa !16
  %15 = load i32, ptr %10, align 4, !tbaa !9
  %16 = call i32 @_ffc_pairwise_consistency_test(ptr noundef %11, ptr noundef %12, i32 noundef %13, ptr noundef %14, i32 noundef %15)
  ret i32 %16
}