; Function Attrs: nounwind uwtable
define range(i32 -173, 1) i32 @wc_DhCheckKeyPair(ptr noundef %0, ptr noundef %1, i32 noundef %2, ptr noundef %3, i32 noundef %4) local_unnamed_addr #1 {
  %6 = alloca [1 x %struct.sp_int], align 16
  %7 = alloca [1 x %struct.sp_int], align 16
  %8 = alloca [1 x %struct.sp_int], align 16
  call void @llvm.lifetime.start.p0(i64 1040, ptr nonnull %6) #14
  call void @llvm.lifetime.start.p0(i64 1040, ptr nonnull %7) #14
  call void @llvm.lifetime.start.p0(i64 1040, ptr nonnull %8) #14
  %9 = icmp eq ptr %0, null
  %10 = icmp eq ptr %1, null
  %or.cond.i = or i1 %9, %10
  %11 = icmp eq ptr %3, null
  %or.cond3.i = or i1 %or.cond.i, %11
  br i1 %or.cond3.i, label %_ffc_pairwise_consistency_test.exit, label %12

12:                                               ; preds = %5
  %13 = load i16, ptr %0, align 8, !tbaa !18
  %.not.i = icmp eq i16 %13, 0
  br i1 %.not.i, label %.critedge.i, label %14

14:                                               ; preds = %12
  %15 = getelementptr inbounds nuw i8, ptr %0, i64 8
  %16 = load i64, ptr %15, align 8, !tbaa !19
  %17 = and i64 %16, 1
  %18 = icmp eq i64 %17, 0
  br i1 %18, label %_ffc_pairwise_consistency_test.exit, label %.critedge.i

.critedge.i:                                      ; preds = %14, %12
  %19 = call i32 @sp_init_multi(ptr noundef nonnull %6, ptr noundef nonnull %7, ptr noundef nonnull %8, ptr noundef null, ptr noundef null, ptr noundef null) #14
  %.not21.i = icmp eq i32 %19, 0
  br i1 %.not21.i, label %20, label %_ffc_pairwise_consistency_test.exit

20:                                               ; preds = %.critedge.i
  %21 = call i32 @sp_read_unsigned_bin(ptr noundef nonnull %6, ptr noundef nonnull %1, i32 noundef %2) #14
  %.not22.i = icmp eq i32 %21, 0
  br i1 %.not22.i, label %22, label %.thread28.i

22:                                               ; preds = %20
  %23 = call i32 @sp_read_unsigned_bin(ptr noundef nonnull %7, ptr noundef nonnull %3, i32 noundef %4) #14
  %.not23.i = icmp eq i32 %23, 0
  br i1 %.not23.i, label %24, label %.thread28.i

24:                                               ; preds = %22
  %25 = getelementptr inbounds nuw i8, ptr %0, i64 1040
  %26 = call i32 @sp_exptmod(ptr noundef nonnull %25, ptr noundef nonnull %7, ptr noundef nonnull %0, ptr noundef nonnull %8) #14
  %.not24.i = icmp eq i32 %26, 0
  br i1 %.not24.i, label %27, label %.thread28.i

27:                                               ; preds = %24
  %28 = call i32 @sp_cmp(ptr noundef nonnull %8, ptr noundef nonnull %6) #14
  %.not25.i = icmp eq i32 %28, 0
  %spec.select26.i = select i1 %.not25.i, i32 0, i32 -120
  br label %.thread28.i

.thread28.i:                                      ; preds = %27, %24, %22, %20
  %.2.i = phi i32 [ %spec.select26.i, %27 ], [ -111, %22 ], [ -111, %20 ], [ -112, %24 ]
  call void @sp_forcezero(ptr noundef nonnull %7) #14
  call void @sp_clear(ptr noundef nonnull %6) #14
  call void @sp_clear(ptr noundef nonnull %8) #14
  br label %_ffc_pairwise_consistency_test.exit

_ffc_pairwise_consistency_test.exit:              ; preds = %5, %14, %.critedge.i, %.thread28.i
  %.017.i = phi i32 [ %.2.i, %.thread28.i ], [ -173, %5 ], [ -98, %14 ], [ -110, %.critedge.i ]
  call void @llvm.lifetime.end.p0(i64 1040, ptr nonnull %8) #14
  call void @llvm.lifetime.end.p0(i64 1040, ptr nonnull %7) #14
  call void @llvm.lifetime.end.p0(i64 1040, ptr nonnull %6) #14
  ret i32 %.017.i
}